target datalayout = "e-m:e-p270:32:32-p271:32:32-p272:64:64-i64:64-i128:128-f80:128-n8:16:32:64-S128"
target triple = "x86_64-pc-linux-gnu"

%struct._zend_refcounted_h = type { i32, %union.anon.0 }
%union.anon.0 = type { i32 }
%struct._zend_string = type { %struct._zend_refcounted_h, i64, i64, [1 x i8] }

@.str.9 = private unnamed_addr constant [81 x i8] c"Type of parameter $%s of hook %s::$%s::set must be compatible with property type\00", align 1

; Function Attrs: alwaysinline nounwind uwtable
define internal ptr @zend_get_unmangled_property_name(ptr noundef %0) #3 {
  %2 = alloca ptr, align 8
  %3 = alloca ptr, align 8
  %4 = alloca ptr, align 8
  store ptr %0, ptr %2, align 8, !tbaa !19
  call void @llvm.lifetime.start.p0(i64 8, ptr %3) #19
  call void @llvm.lifetime.start.p0(i64 8, ptr %4) #19
  %5 = load ptr, ptr %2, align 8, !tbaa !19
  %6 = call i32 @zend_unmangle_property_name_ex(ptr noundef %5, ptr noundef %3, ptr noundef %4, ptr noundef null)
  %7 = load ptr, ptr %4, align 8, !tbaa !66
  call void @llvm.lifetime.end.p0(i64 8, ptr %4) #19
  call void @llvm.lifetime.end.p0(i64 8, ptr %3) #19
  ret ptr %7
}

; Function Attrs: noreturn nounwind uwtable
define dso_local void @zend_hooked_property_variance_error_ex(ptr noundef %0, ptr noundef %1, ptr noundef %2) #9 {
  %4 = alloca ptr, align 8
  %5 = alloca ptr, align 8
  %6 = alloca ptr, align 8
  store ptr %0, ptr %4, align 8, !tbaa !19
  store ptr %1, ptr %5, align 8, !tbaa !19
  store ptr %2, ptr %6, align 8, !tbaa !19
  %7 = load ptr, ptr %4, align 8, !tbaa !19
  %8 = getelementptr inbounds nuw %struct._zend_string, ptr %7, i32 0, i32 3
  %9 = getelementptr inbounds [1 x i8], ptr %8, i64 0, i64 0
  %10 = load ptr, ptr %5, align 8, !tbaa !19
  %11 = getelementptr inbounds nuw %struct._zend_string, ptr %10, i32 0, i32 3
  %12 = getelementptr inbounds [1 x i8], ptr %11, i64 0, i64 0
  %13 = load ptr, ptr %6, align 8, !tbaa !19
  %14 = call ptr @zend_get_unmangled_property_name(ptr noundef %13)
  call void (i32, ptr, ...) @zend_error_noreturn(i32 noundef 64, ptr noundef @.str.9, ptr noundef %9, ptr noundef %12, ptr noundef %14) #21
  unreachable
}