; Function Attrs: noreturn nounwind uwtable
define dso_local void @zend_hooked_property_variance_error_ex(ptr noundef %0, ptr noundef %1, ptr noundef %2) local_unnamed_addr #8 {
  %4 = alloca ptr, align 8
  %5 = alloca ptr, align 8
  %6 = getelementptr inbounds nuw i8, ptr %0, i64 24
  %7 = getelementptr inbounds nuw i8, ptr %1, i64 24
  call void @llvm.lifetime.start.p0(i64 8, ptr nonnull %4) #17
  call void @llvm.lifetime.start.p0(i64 8, ptr nonnull %5) #17
  %8 = call i32 @zend_unmangle_property_name_ex(ptr noundef %2, ptr noundef nonnull %4, ptr noundef nonnull %5, ptr noundef null) #17
  %9 = load ptr, ptr %5, align 8, !tbaa !109
  call void @llvm.lifetime.end.p0(i64 8, ptr nonnull %5) #17
  call void @llvm.lifetime.end.p0(i64 8, ptr nonnull %4) #17
  call void (i32, ptr, ...) @zend_error_noreturn(i32 noundef 64, ptr noundef nonnull @.str.9, ptr noundef nonnull %6, ptr noundef nonnull %7, ptr noundef %9) #19
  unreachable
}